target datalayout = "e-m:e-p270:32:32-p271:32:32-p272:64:64-i64:64-i128:128-f80:128-n8:16:32:64-S128"
target triple = "x86_64-pc-linux-gnu"

%struct.data_str = type { ptr, i32 }

; Function Attrs: null_pointer_is_valid sspstrong uwtable
define internal i32 @vvalue_tvb_lpwstr_len(ptr noundef %0, i32 noundef %1, i32 noundef %2, ptr noundef %3) #0 {
  %5 = alloca ptr, align 8
  %6 = alloca i32, align 4
  %7 = alloca i32, align 4
  %8 = alloca ptr, align 8
  %9 = alloca ptr, align 8
  %10 = alloca ptr, align 8
  %11 = alloca i32, align 4
  store ptr %0, ptr %5, align 8
  store i32 %1, ptr %6, align 4
  store i32 %2, ptr %7, align 4
  store ptr %3, ptr %8, align 8
  call void @llvm.lifetime.start.p0(i64 8, ptr %9) #11
  %12 = load ptr, ptr %8, align 8
  store ptr %12, ptr %9, align 8
  call void @llvm.lifetime.start.p0(i64 8, ptr %10) #11
  call void @llvm.lifetime.start.p0(i64 4, ptr %11) #11
  %13 = load i32, ptr %7, align 4
  %14 = icmp eq i32 %13, 0
  br i1 %14, label %15, label %20

15:                                               ; preds = %4
  %16 = call ptr @wmem_packet_scope()
  %17 = load ptr, ptr %5, align 8
  %18 = load i32, ptr %6, align 4
  %19 = call ptr @tvb_get_stringz_enc(ptr noundef %16, ptr noundef %17, i32 noundef %18, ptr noundef %11, i32 noundef -2147483644)
  store ptr %19, ptr %10, align 8
  br label %27

20:                                               ; preds = %4
  %21 = call ptr @wmem_packet_scope()
  %22 = load ptr, ptr %5, align 8
  %23 = load i32, ptr %6, align 4
  %24 = load i32, ptr %7, align 4
  %25 = call ptr @tvb_get_string_enc(ptr noundef %21, ptr noundef %22, i32 noundef %23, i32 noundef %24, i32 noundef -2147483644)
  store ptr %25, ptr %10, align 8
  %26 = load i32, ptr %7, align 4
  store i32 %26, ptr %11, align 4
  br label %27

27:                                               ; preds = %20, %15
  %28 = load ptr, ptr %10, align 8
  %29 = load ptr, ptr %9, align 8
  %30 = getelementptr inbounds nuw %struct.data_str, ptr %29, i32 0, i32 0
  store ptr %28, ptr %30, align 8
  %31 = load i32, ptr %11, align 4
  call void @llvm.lifetime.end.p0(i64 4, ptr %11) #11
  call void @llvm.lifetime.end.p0(i64 8, ptr %10) #11
  call void @llvm.lifetime.end.p0(i64 8, ptr %9) #11
  ret i32 %31
}

; Function Attrs: null_pointer_is_valid sspstrong uwtable
define internal i32 @vvalue_tvb_lpwstr(ptr noundef %0, i32 noundef %1, ptr noundef %2) #0 {
  %4 = alloca ptr, align 8
  %5 = alloca i32, align 4
  %6 = alloca ptr, align 8
  %7 = alloca ptr, align 8
  store ptr %0, ptr %4, align 8
  store i32 %1, ptr %5, align 4
  store ptr %2, ptr %6, align 8
  call void @llvm.lifetime.start.p0(i64 8, ptr %7) #11
  %8 = load ptr, ptr %6, align 8
  store ptr %8, ptr %7, align 8
  %9 = load ptr, ptr %4, align 8
  %10 = load i32, ptr %5, align 4
  %11 = call i32 @tvb_get_letohl(ptr noundef %9, i32 noundef %10)
  %12 = load ptr, ptr %7, align 8
  %13 = getelementptr inbounds nuw %struct.data_str, ptr %12, i32 0, i32 1
  store i32 %11, ptr %13, align 8
  %14 = load ptr, ptr %4, align 8
  %15 = load i32, ptr %5, align 4
  %16 = add i32 %15, 4
  %17 = load ptr, ptr %6, align 8
  %18 = call i32 @vvalue_tvb_lpwstr_len(ptr noundef %14, i32 noundef %16, i32 noundef 0, ptr noundef %17)
  %19 = add i32 4, %18
  call void @llvm.lifetime.end.p0(i64 8, ptr %7) #11
  ret i32 %19
}