; Function Attrs: null_pointer_is_valid sspstrong uwtable
define internal i32 @vvalue_tvb_lpwstr(ptr noundef %0, i32 noundef %1, ptr noundef writeonly captures(none) initializes((0, 12)) %2) #0 {
  %4 = alloca i32, align 4
  %5 = tail call i32 @tvb_get_letohl(ptr noundef %0, i32 noundef %1)
  %6 = getelementptr inbounds nuw i8, ptr %2, i64 8
  store i32 %5, ptr %6, align 8
  %7 = add i32 %1, 4
  call void @llvm.lifetime.start.p0(i64 4, ptr nonnull %4) #11
  %8 = tail call ptr @wmem_packet_scope()
  %9 = call ptr @tvb_get_stringz_enc(ptr noundef %8, ptr noundef %0, i32 noundef %7, ptr noundef nonnull %4, i32 noundef -2147483644)
  %.pre.i = load i32, ptr %4, align 4
  store ptr %9, ptr %2, align 8
  call void @llvm.lifetime.end.p0(i64 4, ptr nonnull %4) #11
  %10 = add i32 %.pre.i, 4
  ret i32 %10
}